#include <math.h>
#include <stdio.h>
#include <stdlib.h>
#include <string.h>


int main(){
     int i,n,a[100],b[100];
	 scanf("%d",&n);
	 for(i=0;i<n;i++)
	 {
	 scanf("%d",&a[i]);
	 } 
	 for(i=0;i<n;i++)
	 b[i]=a[i];
	 for(i=0;i<n;i++)
	 a[i]=b[n-1-i];
	 for(i=0;i<n-1;i++)
	 printf("%d ",a[i]);
	 printf("%d",a[n-1]);
return 0;
}
