; ModuleID = 'source-C-CXX/46/3588.c'
source_filename = "source-C-CXX/46/3588.c"
target datalayout = "e-m:e-p270:32:32-p271:32:32-p272:64:64-i64:64-f80:128-n8:16:32:64-S128"
target triple = "x86_64-pc-linux-gnu"

@.str = private unnamed_addr constant [3 x i8] c"%d\00", align 1
@.str.1 = private unnamed_addr constant [4 x i8] c"%d \00", align 1

; Function Attrs: nofree nounwind sspstrong uwtable
define dso_local i32 @main() local_unnamed_addr #0 {
  %1 = alloca i32, align 4
  %2 = alloca [100 x i32], align 16
  %3 = bitcast [100 x i32]* %2 to i8*
  %4 = alloca [100 x i32], align 16
  %5 = bitcast [100 x i32]* %4 to i8*
  %6 = bitcast i32* %1 to i8*
  call void @llvm.lifetime.start.p0i8(i64 4, i8* nonnull %6) #4
  call void @llvm.lifetime.start.p0i8(i64 400, i8* nonnull %3) #4
  call void @llvm.lifetime.start.p0i8(i64 400, i8* nonnull %5) #4
  %7 = call i32 (i8*, ...) @__isoc99_scanf(i8* getelementptr inbounds ([3 x i8], [3 x i8]* @.str, i64 0, i64 0), i32* nonnull %1)
  %8 = load i32, i32* %1, align 4, !tbaa !5
  %9 = icmp sgt i32 %8, 0
  br i1 %9, label %12, label %129

10:                                               ; preds = %12
  %11 = icmp sgt i32 %17, 0
  br i1 %11, label %20, label %129

12:                                               ; preds = %0, %12
  %13 = phi i64 [ %16, %12 ], [ 0, %0 ]
  %14 = getelementptr inbounds [100 x i32], [100 x i32]* %2, i64 0, i64 %13
  %15 = call i32 (i8*, ...) @__isoc99_scanf(i8* getelementptr inbounds ([3 x i8], [3 x i8]* @.str, i64 0, i64 0), i32* nonnull %14)
  %16 = add nuw nsw i64 %13, 1
  %17 = load i32, i32* %1, align 4, !tbaa !5
  %18 = sext i32 %17 to i64
  %19 = icmp slt i64 %16, %18
  br i1 %19, label %12, label %10, !llvm.loop !9

20:                                               ; preds = %10
  %21 = zext i32 %17 to i64
  %22 = shl nuw nsw i64 %21, 2
  call void @llvm.memcpy.p0i8.p0i8.i64(i8* nonnull align 16 %5, i8* nonnull align 16 %3, i64 %22, i1 false)
  %23 = zext i32 %17 to i64
  %24 = icmp ult i32 %17, 8
  br i1 %24, label %107, label %25

25:                                               ; preds = %20
  %26 = add nsw i64 %23, -1
  %27 = add i32 %17, -1
  %28 = trunc i64 %26 to i32
  %29 = sub i32 %27, %28
  %30 = icmp sgt i32 %29, %27
  %31 = icmp ugt i64 %26, 4294967295
  %32 = or i1 %30, %31
  br i1 %32, label %107, label %33

33:                                               ; preds = %25
  %34 = and i64 %23, 4294967288
  %35 = trunc i64 %34 to i32
  %36 = add nsw i64 %34, -8
  %37 = lshr exact i64 %36, 3
  %38 = add nuw nsw i64 %37, 1
  %39 = and i64 %38, 1
  %40 = icmp eq i64 %36, 0
  br i1 %40, label %84, label %41

41:                                               ; preds = %33
  %42 = and i64 %38, 4611686018427387902
  br label %43

43:                                               ; preds = %43, %41
  %44 = phi i64 [ 0, %41 ], [ %81, %43 ]
  %45 = phi i64 [ %42, %41 ], [ %82, %43 ]
  %46 = trunc i64 %44 to i32
  %47 = xor i32 %46, -1
  %48 = add i32 %17, %47
  %49 = sext i32 %48 to i64
  %50 = getelementptr inbounds [100 x i32], [100 x i32]* %4, i64 0, i64 %49
  %51 = getelementptr inbounds i32, i32* %50, i64 -3
  %52 = bitcast i32* %51 to <4 x i32>*
  %53 = load <4 x i32>, <4 x i32>* %52, align 4, !tbaa !5
  %54 = shufflevector <4 x i32> %53, <4 x i32> poison, <4 x i32> <i32 3, i32 2, i32 1, i32 0>
  %55 = getelementptr inbounds i32, i32* %50, i64 -7
  %56 = bitcast i32* %55 to <4 x i32>*
  %57 = load <4 x i32>, <4 x i32>* %56, align 4, !tbaa !5
  %58 = shufflevector <4 x i32> %57, <4 x i32> poison, <4 x i32> <i32 3, i32 2, i32 1, i32 0>
  %59 = getelementptr inbounds [100 x i32], [100 x i32]* %2, i64 0, i64 %44
  %60 = bitcast i32* %59 to <4 x i32>*
  store <4 x i32> %54, <4 x i32>* %60, align 16, !tbaa !5
  %61 = getelementptr inbounds i32, i32* %59, i64 4
  %62 = bitcast i32* %61 to <4 x i32>*
  store <4 x i32> %58, <4 x i32>* %62, align 16, !tbaa !5
  %63 = or i64 %44, 8
  %64 = trunc i64 %63 to i32
  %65 = xor i32 %64, -1
  %66 = add i32 %17, %65
  %67 = sext i32 %66 to i64
  %68 = getelementptr inbounds [100 x i32], [100 x i32]* %4, i64 0, i64 %67
  %69 = getelementptr inbounds i32, i32* %68, i64 -3
  %70 = bitcast i32* %69 to <4 x i32>*
  %71 = load <4 x i32>, <4 x i32>* %70, align 4, !tbaa !5
  %72 = shufflevector <4 x i32> %71, <4 x i32> poison, <4 x i32> <i32 3, i32 2, i32 1, i32 0>
  %73 = getelementptr inbounds i32, i32* %68, i64 -7
  %74 = bitcast i32* %73 to <4 x i32>*
  %75 = load <4 x i32>, <4 x i32>* %74, align 4, !tbaa !5
  %76 = shufflevector <4 x i32> %75, <4 x i32> poison, <4 x i32> <i32 3, i32 2, i32 1, i32 0>
  %77 = getelementptr inbounds [100 x i32], [100 x i32]* %2, i64 0, i64 %63
  %78 = bitcast i32* %77 to <4 x i32>*
  store <4 x i32> %72, <4 x i32>* %78, align 16, !tbaa !5
  %79 = getelementptr inbounds i32, i32* %77, i64 4
  %80 = bitcast i32* %79 to <4 x i32>*
  store <4 x i32> %76, <4 x i32>* %80, align 16, !tbaa !5
  %81 = add nuw i64 %44, 16
  %82 = add i64 %45, -2
  %83 = icmp eq i64 %82, 0
  br i1 %83, label %84, label %43, !llvm.loop !11

84:                                               ; preds = %43, %33
  %85 = phi i64 [ 0, %33 ], [ %81, %43 ]
  %86 = icmp eq i64 %39, 0
  br i1 %86, label %105, label %87

87:                                               ; preds = %84
  %88 = trunc i64 %85 to i32
  %89 = xor i32 %88, -1
  %90 = add i32 %17, %89
  %91 = sext i32 %90 to i64
  %92 = getelementptr inbounds [100 x i32], [100 x i32]* %4, i64 0, i64 %91
  %93 = getelementptr inbounds i32, i32* %92, i64 -3
  %94 = bitcast i32* %93 to <4 x i32>*
  %95 = load <4 x i32>, <4 x i32>* %94, align 4, !tbaa !5
  %96 = shufflevector <4 x i32> %95, <4 x i32> poison, <4 x i32> <i32 3, i32 2, i32 1, i32 0>
  %97 = getelementptr inbounds i32, i32* %92, i64 -7
  %98 = bitcast i32* %97 to <4 x i32>*
  %99 = load <4 x i32>, <4 x i32>* %98, align 4, !tbaa !5
  %100 = shufflevector <4 x i32> %99, <4 x i32> poison, <4 x i32> <i32 3, i32 2, i32 1, i32 0>
  %101 = getelementptr inbounds [100 x i32], [100 x i32]* %2, i64 0, i64 %85
  %102 = bitcast i32* %101 to <4 x i32>*
  store <4 x i32> %96, <4 x i32>* %102, align 16, !tbaa !5
  %103 = getelementptr inbounds i32, i32* %101, i64 4
  %104 = bitcast i32* %103 to <4 x i32>*
  store <4 x i32> %100, <4 x i32>* %104, align 16, !tbaa !5
  br label %105

105:                                              ; preds = %84, %87
  %106 = icmp eq i64 %34, %23
  br i1 %106, label %127, label %107

107:                                              ; preds = %25, %20, %105
  %108 = phi i64 [ 0, %25 ], [ 0, %20 ], [ %34, %105 ]
  %109 = phi i32 [ 0, %25 ], [ 0, %20 ], [ %35, %105 ]
  %110 = xor i64 %108, -1
  %111 = and i64 %23, 1
  %112 = icmp eq i64 %111, 0
  br i1 %112, label %122, label %113

113:                                              ; preds = %107
  %114 = xor i32 %109, -1
  %115 = add i32 %17, %114
  %116 = sext i32 %115 to i64
  %117 = getelementptr inbounds [100 x i32], [100 x i32]* %4, i64 0, i64 %116
  %118 = load i32, i32* %117, align 4, !tbaa !5
  %119 = getelementptr inbounds [100 x i32], [100 x i32]* %2, i64 0, i64 %108
  store i32 %118, i32* %119, align 16, !tbaa !5
  %120 = or i64 %108, 1
  %121 = add nuw nsw i32 %109, 1
  br label %122

122:                                              ; preds = %113, %107
  %123 = phi i64 [ %108, %107 ], [ %120, %113 ]
  %124 = phi i32 [ %109, %107 ], [ %121, %113 ]
  %125 = sub nsw i64 0, %23
  %126 = icmp eq i64 %110, %125
  br i1 %126, label %127, label %133

127:                                              ; preds = %122, %133, %105
  %128 = icmp sgt i32 %17, 1
  br i1 %128, label %152, label %129

129:                                              ; preds = %10, %0, %127
  %130 = phi i32 [ %17, %127 ], [ %8, %0 ], [ %17, %10 ]
  %131 = add nsw i32 %130, -1
  %132 = sext i32 %131 to i64
  br label %162

133:                                              ; preds = %122, %133
  %134 = phi i64 [ %149, %133 ], [ %123, %122 ]
  %135 = phi i32 [ %150, %133 ], [ %124, %122 ]
  %136 = xor i32 %135, -1
  %137 = add i32 %17, %136
  %138 = sext i32 %137 to i64
  %139 = getelementptr inbounds [100 x i32], [100 x i32]* %4, i64 0, i64 %138
  %140 = load i32, i32* %139, align 4, !tbaa !5
  %141 = getelementptr inbounds [100 x i32], [100 x i32]* %2, i64 0, i64 %134
  store i32 %140, i32* %141, align 4, !tbaa !5
  %142 = add nuw nsw i64 %134, 1
  %143 = sub i32 -2, %135
  %144 = add i32 %17, %143
  %145 = sext i32 %144 to i64
  %146 = getelementptr inbounds [100 x i32], [100 x i32]* %4, i64 0, i64 %145
  %147 = load i32, i32* %146, align 4, !tbaa !5
  %148 = getelementptr inbounds [100 x i32], [100 x i32]* %2, i64 0, i64 %142
  store i32 %147, i32* %148, align 4, !tbaa !5
  %149 = add nuw nsw i64 %134, 2
  %150 = add nuw nsw i32 %135, 2
  %151 = icmp eq i64 %149, %23
  br i1 %151, label %127, label %133, !llvm.loop !13

152:                                              ; preds = %127, %152
  %153 = phi i64 [ %157, %152 ], [ 0, %127 ]
  %154 = getelementptr inbounds [100 x i32], [100 x i32]* %2, i64 0, i64 %153
  %155 = load i32, i32* %154, align 4, !tbaa !5
  %156 = call i32 (i8*, ...) @printf(i8* nonnull dereferenceable(1) getelementptr inbounds ([4 x i8], [4 x i8]* @.str.1, i64 0, i64 0), i32 %155)
  %157 = add nuw nsw i64 %153, 1
  %158 = load i32, i32* %1, align 4, !tbaa !5
  %159 = add nsw i32 %158, -1
  %160 = sext i32 %159 to i64
  %161 = icmp slt i64 %157, %160
  br i1 %161, label %152, label %162, !llvm.loop !14

162:                                              ; preds = %152, %129
  %163 = phi i64 [ %132, %129 ], [ %160, %152 ]
  %164 = getelementptr inbounds [100 x i32], [100 x i32]* %2, i64 0, i64 %163
  %165 = load i32, i32* %164, align 4, !tbaa !5
  %166 = call i32 (i8*, ...) @printf(i8* nonnull dereferenceable(1) getelementptr inbounds ([3 x i8], [3 x i8]* @.str, i64 0, i64 0), i32 %165)
  call void @llvm.lifetime.end.p0i8(i64 400, i8* nonnull %5) #4
  call void @llvm.lifetime.end.p0i8(i64 400, i8* nonnull %3) #4
  call void @llvm.lifetime.end.p0i8(i64 4, i8* nonnull %6) #4
  ret i32 0
}

; Function Attrs: argmemonly mustprogress nofree nosync nounwind willreturn
declare void @llvm.lifetime.start.p0i8(i64 immarg, i8* nocapture) #1

; Function Attrs: nofree nounwind
declare noundef i32 @__isoc99_scanf(i8* nocapture noundef readonly, ...) local_unnamed_addr #2

; Function Attrs: nofree nounwind
declare noundef i32 @printf(i8* nocapture noundef readonly, ...) local_unnamed_addr #2

; Function Attrs: argmemonly mustprogress nofree nosync nounwind willreturn
declare void @llvm.lifetime.end.p0i8(i64 immarg, i8* nocapture) #1

; Function Attrs: argmemonly nofree nounwind willreturn
declare void @llvm.memcpy.p0i8.p0i8.i64(i8* noalias nocapture writeonly, i8* noalias nocapture readonly, i64, i1 immarg) #3


!llvm.module.flags = !{!0, !1, !2, !3}
!llvm.ident = !{!4}

!0 = !{i32 1, !"wchar_size", i32 4}
!1 = !{i32 7, !"PIC Level", i32 2}
!2 = !{i32 7, !"PIE Level", i32 2}
!3 = !{i32 7, !"uwtable", i32 1}
!4 = !{!"clang version 13.0.0"}
!5 = !{!6, !6, i64 0}
!6 = !{!"int", !7, i64 0}
!7 = !{!"omnipotent char", !8, i64 0}
!8 = !{!"Simple C/C++ TBAA"}
!9 = distinct !{!9, !10}
!10 = !{!"llvm.loop.mustprogress"}
!11 = distinct !{!11, !10, !12}
!12 = !{!"llvm.loop.isvectorized", i32 1}
!13 = distinct !{!13, !10, !12}
!14 = distinct !{!14, !10}
